target datalayout = "e-m:e-p270:32:32-p271:32:32-p272:64:64-i64:64-i128:128-f80:128-n8:16:32:64-S128"
target triple = "x86_64-pc-linux-gnu"

%struct._zval_struct = type { %union._zend_value, %union.anon, %union.anon.2 }
%union._zend_value = type { i64 }
%union.anon = type { i32 }
%union.anon.2 = type { i32 }
%struct._zend_refcounted_h = type { i32, %union.anon.3 }
%union.anon.3 = type { i32 }
%struct._zend_fiber_context = type { ptr, ptr, ptr, ptr, ptr, i32, ptr, [6 x ptr] }
%struct._zend_fiber = type { %struct._zend_object, i8, %struct._zend_fiber_context, ptr, ptr, %struct._zend_fcall_info, %struct._zend_fcall_info_cache, ptr, ptr, ptr, %struct._zval_struct }
%struct._zend_object = type { %struct._zend_refcounted_h, i32, i32, ptr, ptr, ptr, [1 x %struct._zval_struct] }
%struct._zend_fcall_info = type { i64, %struct._zval_struct, ptr, ptr, ptr, i32, ptr }
%struct._zend_fcall_info_cache = type { ptr, ptr, ptr, ptr, ptr }
%struct._zend_execute_data = type { ptr, ptr, ptr, ptr, %struct._zval_struct, ptr, ptr, ptr, ptr }

; Function Attrs: nounwind uwtable
define hidden void @zim_Fiber_isRunning(ptr noundef %0, ptr noundef %1) #0 {
  %3 = alloca ptr, align 8
  %4 = alloca ptr, align 8
  %5 = alloca ptr, align 8
  %6 = alloca i32, align 4
  store ptr %0, ptr %3, align 8, !tbaa !127
  store ptr %1, ptr %4, align 8, !tbaa !94
  call void @llvm.lifetime.start.p0(i64 8, ptr %5) #18
  br label %7

7:                                                ; preds = %2
  %8 = load ptr, ptr %3, align 8, !tbaa !127
  %9 = getelementptr inbounds nuw %struct._zend_execute_data, ptr %8, i32 0, i32 4
  %10 = getelementptr inbounds nuw %struct._zval_struct, ptr %9, i32 0, i32 2
  %11 = load i32, ptr %10, align 4, !tbaa !61
  %12 = icmp ne i32 %11, 0
  %13 = xor i1 %12, true
  %14 = xor i1 %13, true
  %15 = zext i1 %14 to i32
  %16 = sext i32 %15 to i64
  %17 = call i64 @llvm.expect.i64(i64 %16, i64 0)
  %18 = icmp ne i64 %17, 0
  br i1 %18, label %19, label %20

19:                                               ; preds = %7
  call void @zend_wrong_parameters_none_error()
  store i32 1, ptr %6, align 4
  br label %48

20:                                               ; preds = %7
  br label %21

21:                                               ; preds = %20
  br label %22

22:                                               ; preds = %21
  %23 = load ptr, ptr %3, align 8, !tbaa !127
  %24 = getelementptr inbounds nuw %struct._zend_execute_data, ptr %23, i32 0, i32 4
  %25 = getelementptr inbounds nuw %struct._zval_struct, ptr %24, i32 0, i32 0
  %26 = load ptr, ptr %25, align 8, !tbaa !61
  store ptr %26, ptr %5, align 8, !tbaa !93
  br label %27

27:                                               ; preds = %22
  br label %28

28:                                               ; preds = %27
  %29 = load ptr, ptr %5, align 8, !tbaa !93
  %30 = getelementptr inbounds nuw %struct._zend_fiber, ptr %29, i32 0, i32 2
  %31 = getelementptr inbounds nuw %struct._zend_fiber_context, ptr %30, i32 0, i32 5
  %32 = load i32, ptr %31, align 8, !tbaa !95
  %33 = icmp eq i32 %32, 1
  br i1 %33, label %39, label %34

34:                                               ; preds = %28
  %35 = load ptr, ptr %5, align 8, !tbaa !93
  %36 = getelementptr inbounds nuw %struct._zend_fiber, ptr %35, i32 0, i32 3
  %37 = load ptr, ptr %36, align 8, !tbaa !123
  %38 = icmp ne ptr %37, null
  br label %39

39:                                               ; preds = %34, %28
  %40 = phi i1 [ true, %28 ], [ %38, %34 ]
  %41 = select i1 %40, i32 3, i32 2
  %42 = load ptr, ptr %4, align 8, !tbaa !94
  %43 = getelementptr inbounds nuw %struct._zval_struct, ptr %42, i32 0, i32 1
  store i32 %41, ptr %43, align 8, !tbaa !61
  br label %44

44:                                               ; preds = %39
  br label %45

45:                                               ; preds = %44
  store i32 1, ptr %6, align 4
  br label %48

46:                                               ; No predecessors!
  br label %47

47:                                               ; preds = %46
  store i32 0, ptr %6, align 4
  br label %48

48:                                               ; preds = %47, %45, %19
  call void @llvm.lifetime.end.p0(i64 8, ptr %5) #18
  %49 = load i32, ptr %6, align 4
  switch i32 %49, label %51 [
    i32 0, label %50
    i32 1, label %50
  ]

50:                                               ; preds = %48, %48
  ret void

51:                                               ; preds = %48
  unreachable
}