; Function Attrs: nounwind uwtable
define hidden void @zim_Fiber_isRunning(ptr noundef readonly captures(none) %0, ptr noundef writeonly captures(none) %1) #7 {
  %3 = getelementptr inbounds nuw i8, ptr %0, i64 44
  %4 = load i32, ptr %3, align 4, !tbaa !56
  %.not = icmp eq i32 %4, 0
  br i1 %.not, label %6, label %5, !prof !73

5:                                                ; preds = %2
  tail call void @zend_wrong_parameters_none_error() #22
  br label %19

6:                                                ; preds = %2
  %7 = getelementptr inbounds nuw i8, ptr %0, i64 32
  %8 = load ptr, ptr %7, align 8, !tbaa !56
  %9 = getelementptr inbounds nuw i8, ptr %8, i64 104
  %10 = load i32, ptr %9, align 8, !tbaa !74
  %11 = icmp eq i32 %10, 1
  br i1 %11, label %16, label %12

12:                                               ; preds = %6
  %13 = getelementptr inbounds nuw i8, ptr %8, i64 168
  %14 = load ptr, ptr %13, align 8, !tbaa !88
  %.not5 = icmp eq ptr %14, null
  %15 = select i1 %.not5, i32 2, i32 3
  br label %16

16:                                               ; preds = %12, %6
  %17 = phi i32 [ 3, %6 ], [ %15, %12 ]
  %18 = getelementptr inbounds nuw i8, ptr %1, i64 8
  store i32 %17, ptr %18, align 8, !tbaa !56
  br label %19

19:                                               ; preds = %16, %5
  ret void
}